target datalayout = "e-m:e-p270:32:32-p271:32:32-p272:64:64-i64:64-i128:128-f80:128-n8:16:32:64-S128"
target triple = "x86_64-pc-linux-gnu"

%struct.primary_thread_arg = type { i32, ptr }

@.str.269 = private unnamed_addr constant [25 x i8] c"%s: %s exit status %u:%u\00", align 1
@__func__._wait_primary_prog = private unnamed_addr constant [19 x i8] c"_wait_primary_prog\00", align 1
@.str.270 = private unnamed_addr constant [30 x i8] c"%s: %s completed successfully\00", align 1

; Function Attrs: nounwind uwtable
define internal ptr @_wait_primary_prog(ptr noundef %0) #0 {
  %2 = alloca ptr, align 8
  %3 = alloca ptr, align 8
  %4 = alloca i32, align 4
  store ptr %0, ptr %2, align 8
  call void @llvm.lifetime.start.p0(i64 8, ptr %3) #11
  %5 = load ptr, ptr %2, align 8
  store ptr %5, ptr %3, align 8
  call void @llvm.lifetime.start.p0(i64 4, ptr %4) #11
  store i32 0, ptr %4, align 4
  %6 = load ptr, ptr %3, align 8
  %7 = getelementptr inbounds nuw %struct.primary_thread_arg, ptr %6, i32 0, i32 0
  %8 = load i32, ptr %7, align 8
  %9 = call i32 @waitpid(i32 noundef %8, ptr noundef %4, i32 noundef 0)
  %10 = load i32, ptr %4, align 4
  %11 = icmp ne i32 %10, 0
  br i1 %11, label %12, label %22

12:                                               ; preds = %1
  %13 = load ptr, ptr %3, align 8
  %14 = getelementptr inbounds nuw %struct.primary_thread_arg, ptr %13, i32 0, i32 1
  %15 = load ptr, ptr %14, align 8
  %16 = load i32, ptr %4, align 4
  %17 = and i32 %16, 65280
  %18 = ashr i32 %17, 8
  %19 = load i32, ptr %4, align 4
  %20 = and i32 %19, 127
  %21 = call i32 (ptr, ...) @error(ptr noundef @.str.269, ptr noundef @__func__._wait_primary_prog, ptr noundef %15, i32 noundef %18, i32 noundef %20)
  br label %36

22:                                               ; preds = %1
  br label %23

23:                                               ; preds = %22
  br label %24

24:                                               ; preds = %23
  %25 = call i32 @get_log_level()
  %26 = icmp sge i32 %25, 3
  br i1 %26, label %27, label %31

27:                                               ; preds = %24
  %28 = load ptr, ptr %3, align 8
  %29 = getelementptr inbounds nuw %struct.primary_thread_arg, ptr %28, i32 0, i32 1
  %30 = load ptr, ptr %29, align 8
  call void (i32, ptr, ...) @log_var(i32 noundef 3, ptr noundef @.str.270, ptr noundef @__func__._wait_primary_prog, ptr noundef %30)
  br label %31

31:                                               ; preds = %27, %24
  br label %32

32:                                               ; preds = %31
  br label %33

33:                                               ; preds = %32
  br label %34

34:                                               ; preds = %33
  br label %35

35:                                               ; preds = %34
  br label %36

36:                                               ; preds = %35, %12
  %37 = load ptr, ptr %3, align 8
  %38 = getelementptr inbounds nuw %struct.primary_thread_arg, ptr %37, i32 0, i32 1
  call void @slurm_xfree(ptr noundef %38)
  call void @slurm_xfree(ptr noundef %3)
  call void @llvm.lifetime.end.p0(i64 4, ptr %4) #11
  call void @llvm.lifetime.end.p0(i64 8, ptr %3) #11
  ret ptr null
}