; Function Attrs: nounwind uwtable
define internal noalias noundef ptr @_wait_primary_prog(ptr noundef %0) #6 {
  %2 = alloca ptr, align 8
  %3 = alloca i32, align 4
  call void @llvm.lifetime.start.p0(i64 8, ptr nonnull %2) #19
  store ptr %0, ptr %2, align 8
  call void @llvm.lifetime.start.p0(i64 4, ptr nonnull %3) #19
  store i32 0, ptr %3, align 4
  %4 = load i32, ptr %0, align 8
  %5 = call i32 @waitpid(i32 noundef %4, ptr noundef nonnull %3, i32 noundef 0) #19
  %6 = load i32, ptr %3, align 4
  %.not = icmp eq i32 %6, 0
  br i1 %.not, label %14, label %7

7:                                                ; preds = %1
  %8 = getelementptr inbounds nuw i8, ptr %0, i64 8
  %9 = load ptr, ptr %8, align 8
  %10 = lshr i32 %6, 8
  %11 = and i32 %10, 255
  %12 = and i32 %6, 127
  %13 = call i32 (ptr, ...) @error(ptr noundef nonnull @.str.269, ptr noundef nonnull @__func__._wait_primary_prog, ptr noundef %9, i32 noundef %11, i32 noundef %12) #19
  br label %20

14:                                               ; preds = %1
  %15 = call i32 @get_log_level() #19
  %16 = icmp sgt i32 %15, 2
  br i1 %16, label %17, label %20

17:                                               ; preds = %14
  %18 = getelementptr inbounds nuw i8, ptr %0, i64 8
  %19 = load ptr, ptr %18, align 8
  call void (i32, ptr, ...) @log_var(i32 noundef 3, ptr noundef nonnull @.str.270, ptr noundef nonnull @__func__._wait_primary_prog, ptr noundef %19) #19
  br label %20

20:                                               ; preds = %14, %17, %7
  %21 = getelementptr inbounds nuw i8, ptr %0, i64 8
  call void @slurm_xfree(ptr noundef nonnull %21) #19
  call void @slurm_xfree(ptr noundef nonnull %2) #19
  call void @llvm.lifetime.end.p0(i64 4, ptr nonnull %3) #19
  call void @llvm.lifetime.end.p0(i64 8, ptr nonnull %2) #19
  ret ptr null
}